target datalayout = "e-m:e-p270:32:32-p271:32:32-p272:64:64-i64:64-i128:128-f80:128-n8:16:32:64-S128"
target triple = "x86_64-pc-linux-gnu"

%struct.SDL_Haptic = type { i32, ptr, ptr, i32, i32, i32, i32, ptr, i32, i32, %union.SDL_HapticEffect, ptr }
%union.SDL_HapticEffect = type { %struct.SDL_HapticCustom, [16 x i8] }
%struct.SDL_HapticCustom = type { i16, %struct.SDL_HapticDirection, i32, i16, i16, i16, i8, i16, i16, ptr, i16, i16, i16, i16 }
%struct.SDL_HapticDirection = type { i8, [3 x i32] }

@SDL_haptics = internal global ptr null, align 8
@.str = private unnamed_addr constant [26 x i8] c"Parameter '%s' is invalid\00", align 1
@.str.1 = private unnamed_addr constant [7 x i8] c"haptic\00", align 1
@.str.15 = private unnamed_addr constant [52 x i8] c"Haptic: Device does not support setting autocenter.\00", align 1
@.str.16 = private unnamed_addr constant [46 x i8] c"Haptic: Autocenter must be between 0 and 100.\00", align 1
@.str.20 = private unnamed_addr constant [27 x i8] c"Haptic device %u not found\00", align 1

; Function Attrs: nounwind uwtable
define hidden zeroext i1 @SDL_SetHapticAutocenter_REAL(ptr noundef %0, i32 noundef %1) #0 {
  %3 = alloca i1, align 1
  %4 = alloca ptr, align 8
  %5 = alloca i32, align 4
  store ptr %0, ptr %4, align 8
  store i32 %1, ptr %5, align 4
  %6 = load ptr, ptr %4, align 8
  %7 = call zeroext i1 @SDL_ObjectValid(ptr noundef %6, i32 noundef 6)
  br i1 %7, label %10, label %8

8:                                                ; preds = %2
  %9 = call zeroext i1 (ptr, ...) @SDL_SetError_REAL(ptr noundef @.str, ptr noundef @.str.1)
  store i1 false, ptr %3, align 1
  br label %37

10:                                               ; preds = %2
  %11 = load ptr, ptr %4, align 8
  %12 = getelementptr inbounds nuw %struct.SDL_Haptic, ptr %11, i32 0, i32 5
  %13 = load i32, ptr %12, align 8
  %14 = and i32 %13, 131072
  %15 = icmp ne i32 %14, 0
  br i1 %15, label %18, label %16

16:                                               ; preds = %10
  %17 = call zeroext i1 (ptr, ...) @SDL_SetError_REAL(ptr noundef @.str.15)
  store i1 %17, ptr %3, align 1
  br label %37

18:                                               ; preds = %10
  %19 = load i32, ptr %5, align 4
  %20 = icmp slt i32 %19, 0
  br i1 %20, label %24, label %21

21:                                               ; preds = %18
  %22 = load i32, ptr %5, align 4
  %23 = icmp sgt i32 %22, 100
  br i1 %23, label %24, label %26

24:                                               ; preds = %21, %18
  %25 = call zeroext i1 (ptr, ...) @SDL_SetError_REAL(ptr noundef @.str.16)
  store i1 %25, ptr %3, align 1
  br label %37

26:                                               ; preds = %21
  %27 = load ptr, ptr %4, align 8
  %28 = call zeroext i1 @SDL_HIDAPI_HapticIsHidapi(ptr noundef %27)
  br i1 %28, label %29, label %33

29:                                               ; preds = %26
  %30 = load ptr, ptr %4, align 8
  %31 = load i32, ptr %5, align 4
  %32 = call zeroext i1 @SDL_HIDAPI_HapticSetAutocenter(ptr noundef %30, i32 noundef %31)
  store i1 %32, ptr %3, align 1
  br label %37

33:                                               ; preds = %26
  %34 = load ptr, ptr %4, align 8
  %35 = load i32, ptr %5, align 4
  %36 = call zeroext i1 @SDL_SYS_HapticSetAutocenter(ptr noundef %34, i32 noundef %35)
  store i1 %36, ptr %3, align 1
  br label %37

37:                                               ; preds = %33, %29, %24, %16, %8
  %38 = load i1, ptr %3, align 1
  ret i1 %38
}

; Function Attrs: nounwind uwtable
define internal zeroext i1 @SDL_GetHapticIndex(i32 noundef %0, ptr noundef %1) #0 {
  %3 = alloca i1, align 1
  %4 = alloca i32, align 4
  %5 = alloca ptr, align 8
  %6 = alloca i32, align 4
  %7 = alloca i32, align 4
  %8 = alloca i32, align 4
  %9 = alloca i32, align 4
  store i32 %0, ptr %4, align 4
  store ptr %1, ptr %5, align 8
  call void @llvm.lifetime.start.p0(i64 4, ptr %6) #7
  call void @llvm.lifetime.start.p0(i64 4, ptr %7) #7
  %10 = load i32, ptr %4, align 4
  %11 = icmp ugt i32 %10, 0
  br i1 %11, label %12, label %35

12:                                               ; preds = %2
  %13 = call i32 @SDL_SYS_NumHaptics()
  store i32 %13, ptr %6, align 4
  store i32 0, ptr %7, align 4
  br label %14

14:                                               ; preds = %31, %12
  %15 = load i32, ptr %7, align 4
  %16 = load i32, ptr %6, align 4
  %17 = icmp slt i32 %15, %16
  br i1 %17, label %18, label %34

18:                                               ; preds = %14
  call void @llvm.lifetime.start.p0(i64 4, ptr %8) #7
  %19 = load i32, ptr %7, align 4
  %20 = call i32 @SDL_SYS_HapticInstanceID(i32 noundef %19)
  store i32 %20, ptr %8, align 4
  %21 = load i32, ptr %8, align 4
  %22 = load i32, ptr %4, align 4
  %23 = icmp eq i32 %21, %22
  br i1 %23, label %24, label %27

24:                                               ; preds = %18
  %25 = load i32, ptr %7, align 4
  %26 = load ptr, ptr %5, align 8
  store i32 %25, ptr %26, align 4
  store i1 true, ptr %3, align 1
  store i32 1, ptr %9, align 4
  br label %28

27:                                               ; preds = %18
  store i32 0, ptr %9, align 4
  br label %28

28:                                               ; preds = %27, %24
  call void @llvm.lifetime.end.p0(i64 4, ptr %8) #7
  %29 = load i32, ptr %9, align 4
  switch i32 %29, label %38 [
    i32 0, label %30
  ]

30:                                               ; preds = %28
  br label %31

31:                                               ; preds = %30
  %32 = load i32, ptr %7, align 4
  %33 = add nsw i32 %32, 1
  store i32 %33, ptr %7, align 4
  br label %14, !llvm.loop !5

34:                                               ; preds = %14
  br label %35

35:                                               ; preds = %34, %2
  %36 = load i32, ptr %4, align 4
  %37 = call zeroext i1 (ptr, ...) @SDL_SetError_REAL(ptr noundef @.str.20, i32 noundef %36)
  store i1 false, ptr %3, align 1
  store i32 1, ptr %9, align 4
  br label %38

38:                                               ; preds = %35, %28
  call void @llvm.lifetime.end.p0(i64 4, ptr %7) #7
  call void @llvm.lifetime.end.p0(i64 4, ptr %6) #7
  %39 = load i1, ptr %3, align 1
  ret i1 %39
}

; Function Attrs: nounwind uwtable
define hidden ptr @SDL_OpenHaptic_REAL(i32 noundef %0) #0 {
  %2 = alloca ptr, align 8
  %3 = alloca i32, align 4
  %4 = alloca ptr, align 8
  %5 = alloca ptr, align 8
  %6 = alloca ptr, align 8
  %7 = alloca i32, align 4
  %8 = alloca i32, align 4
  store i32 %0, ptr %3, align 4
  call void @llvm.lifetime.start.p0(i64 8, ptr %4) #7
  call void @llvm.lifetime.start.p0(i64 8, ptr %5) #7
  call void @llvm.lifetime.start.p0(i64 8, ptr %6) #7
  call void @llvm.lifetime.start.p0(i64 4, ptr %7) #7
  store i32 0, ptr %7, align 4
  %9 = load i32, ptr %3, align 4
  %10 = call zeroext i1 @SDL_GetHapticIndex(i32 noundef %9, ptr noundef %7)
  br i1 %10, label %12, label %11

11:                                               ; preds = %1
  store ptr null, ptr %2, align 8
  store i32 1, ptr %8, align 4
  br label %95

12:                                               ; preds = %1
  %13 = load ptr, ptr @SDL_haptics, align 8
  store ptr %13, ptr %5, align 8
  br label %14

14:                                               ; preds = %30, %12
  %15 = load ptr, ptr %5, align 8
  %16 = icmp ne ptr %15, null
  br i1 %16, label %17, label %34

17:                                               ; preds = %14
  %18 = load i32, ptr %3, align 4
  %19 = load ptr, ptr %5, align 8
  %20 = getelementptr inbounds nuw %struct.SDL_Haptic, ptr %19, i32 0, i32 0
  %21 = load i32, ptr %20, align 8
  %22 = icmp eq i32 %18, %21
  br i1 %22, label %23, label %30

23:                                               ; preds = %17
  %24 = load ptr, ptr %5, align 8
  store ptr %24, ptr %4, align 8
  %25 = load ptr, ptr %4, align 8
  %26 = getelementptr inbounds nuw %struct.SDL_Haptic, ptr %25, i32 0, i32 8
  %27 = load i32, ptr %26, align 8
  %28 = add nsw i32 %27, 1
  store i32 %28, ptr %26, align 8
  %29 = load ptr, ptr %4, align 8
  store ptr %29, ptr %2, align 8
  store i32 1, ptr %8, align 4
  br label %95

30:                                               ; preds = %17
  %31 = load ptr, ptr %5, align 8
  %32 = getelementptr inbounds nuw %struct.SDL_Haptic, ptr %31, i32 0, i32 11
  %33 = load ptr, ptr %32, align 8
  store ptr %33, ptr %5, align 8
  br label %14, !llvm.loop !6

34:                                               ; preds = %14
  %35 = call noalias ptr @SDL_calloc_REAL(i64 noundef 1, i64 noundef 136) #8
  store ptr %35, ptr %4, align 8
  %36 = load ptr, ptr %4, align 8
  %37 = icmp ne ptr %36, null
  br i1 %37, label %39, label %38

38:                                               ; preds = %34
  store ptr null, ptr %2, align 8
  store i32 1, ptr %8, align 4
  br label %95

39:                                               ; preds = %34
  %40 = load i32, ptr %3, align 4
  %41 = load ptr, ptr %4, align 8
  %42 = getelementptr inbounds nuw %struct.SDL_Haptic, ptr %41, i32 0, i32 0
  store i32 %40, ptr %42, align 8
  %43 = load ptr, ptr %4, align 8
  %44 = getelementptr inbounds nuw %struct.SDL_Haptic, ptr %43, i32 0, i32 9
  store i32 -1, ptr %44, align 4
  %45 = load ptr, ptr %4, align 8
  %46 = call zeroext i1 @SDL_SYS_HapticOpen(ptr noundef %45)
  br i1 %46, label %50, label %47

47:                                               ; preds = %39
  %48 = load ptr, ptr %4, align 8
  call void @SDL_SetObjectValid(ptr noundef %48, i32 noundef 6, i1 noundef zeroext false)
  %49 = load ptr, ptr %4, align 8
  call void @SDL_free_REAL(ptr noundef %49)
  store ptr null, ptr %2, align 8
  store i32 1, ptr %8, align 4
  br label %95

50:                                               ; preds = %39
  %51 = load ptr, ptr %4, align 8
  %52 = getelementptr inbounds nuw %struct.SDL_Haptic, ptr %51, i32 0, i32 1
  %53 = load ptr, ptr %52, align 8
  %54 = icmp ne ptr %53, null
  br i1 %54, label %66, label %55

55:                                               ; preds = %50
  %56 = load i32, ptr %7, align 4
  %57 = call ptr @SDL_SYS_HapticName(i32 noundef %56)
  store ptr %57, ptr %6, align 8
  %58 = load ptr, ptr %6, align 8
  %59 = icmp ne ptr %58, null
  br i1 %59, label %60, label %65

60:                                               ; preds = %55
  %61 = load ptr, ptr %6, align 8
  %62 = call noalias ptr @SDL_strdup_REAL(ptr noundef %61)
  %63 = load ptr, ptr %4, align 8
  %64 = getelementptr inbounds nuw %struct.SDL_Haptic, ptr %63, i32 0, i32 1
  store ptr %62, ptr %64, align 8
  br label %65

65:                                               ; preds = %60, %55
  br label %66

66:                                               ; preds = %65, %50
  %67 = load ptr, ptr %4, align 8
  %68 = getelementptr inbounds nuw %struct.SDL_Haptic, ptr %67, i32 0, i32 8
  %69 = load i32, ptr %68, align 8
  %70 = add nsw i32 %69, 1
  store i32 %70, ptr %68, align 8
  %71 = load ptr, ptr @SDL_haptics, align 8
  %72 = load ptr, ptr %4, align 8
  %73 = getelementptr inbounds nuw %struct.SDL_Haptic, ptr %72, i32 0, i32 11
  store ptr %71, ptr %73, align 8
  %74 = load ptr, ptr %4, align 8
  store ptr %74, ptr @SDL_haptics, align 8
  %75 = load ptr, ptr %4, align 8
  call void @SDL_SetObjectValid(ptr noundef %75, i32 noundef 6, i1 noundef zeroext true)
  %76 = load ptr, ptr %4, align 8
  %77 = getelementptr inbounds nuw %struct.SDL_Haptic, ptr %76, i32 0, i32 5
  %78 = load i32, ptr %77, align 8
  %79 = and i32 %78, 65536
  %80 = icmp ne i32 %79, 0
  br i1 %80, label %81, label %84

81:                                               ; preds = %66
  %82 = load ptr, ptr %4, align 8
  %83 = call zeroext i1 @SDL_SetHapticGain_REAL(ptr noundef %82, i32 noundef 100)
  br label %84

84:                                               ; preds = %81, %66
  %85 = load ptr, ptr %4, align 8
  %86 = getelementptr inbounds nuw %struct.SDL_Haptic, ptr %85, i32 0, i32 5
  %87 = load i32, ptr %86, align 8
  %88 = and i32 %87, 131072
  %89 = icmp ne i32 %88, 0
  br i1 %89, label %90, label %93

90:                                               ; preds = %84
  %91 = load ptr, ptr %4, align 8
  %92 = call zeroext i1 @SDL_SetHapticAutocenter_REAL(ptr noundef %91, i32 noundef 0)
  br label %93

93:                                               ; preds = %90, %84
  %94 = load ptr, ptr %4, align 8
  store ptr %94, ptr %2, align 8
  store i32 1, ptr %8, align 4
  br label %95

95:                                               ; preds = %93, %47, %38, %23, %11
  call void @llvm.lifetime.end.p0(i64 4, ptr %7) #7
  call void @llvm.lifetime.end.p0(i64 8, ptr %6) #7
  call void @llvm.lifetime.end.p0(i64 8, ptr %5) #7
  call void @llvm.lifetime.end.p0(i64 8, ptr %4) #7
  %96 = load ptr, ptr %2, align 8
  ret ptr %96
}