; Function Attrs: nounwind uwtable
define hidden noundef ptr @SDL_OpenHaptic_REAL(i32 noundef %0) local_unnamed_addr #0 {
  %.not.i = icmp eq i32 %0, 0
  br i1 %.not.i, label %SDL_GetHapticIndex.exit.thread, label %2

2:                                                ; preds = %1
  %3 = tail call i32 @SDL_SYS_NumHaptics() #9
  %4 = icmp sgt i32 %3, 0
  br i1 %4, label %.lr.ph.i, label %SDL_GetHapticIndex.exit.thread

.lr.ph.i:                                         ; preds = %2, %.critedge.i
  %.01216.i = phi i32 [ %6, %.critedge.i ], [ 0, %2 ]
  %5 = tail call i32 @SDL_SYS_HapticInstanceID(i32 noundef %.01216.i) #9
  %.not14.i = icmp eq i32 %5, %0
  br i1 %.not14.i, label %SDL_GetHapticIndex.exit.preheader, label %.critedge.i

SDL_GetHapticIndex.exit.preheader:                ; preds = %.lr.ph.i
  %.02842 = load ptr, ptr @SDL_haptics, align 8
  %.not43 = icmp eq ptr %.02842, null
  br i1 %.not43, label %SDL_GetHapticIndex.exit._crit_edge, label %.lr.ph

.critedge.i:                                      ; preds = %.lr.ph.i
  %6 = add nuw nsw i32 %.01216.i, 1
  %exitcond.not.i = icmp eq i32 %6, %3
  br i1 %exitcond.not.i, label %SDL_GetHapticIndex.exit.thread, label %.lr.ph.i, !llvm.loop !5

SDL_GetHapticIndex.exit.thread:                   ; preds = %.critedge.i, %1, %2
  %7 = tail call zeroext i1 (ptr, ...) @SDL_SetError_REAL(ptr noundef nonnull @.str.20, i32 noundef %0) #9
  br label %SDL_SetHapticAutocenter_REAL.exit

.lr.ph:                                           ; preds = %SDL_GetHapticIndex.exit.preheader, %SDL_GetHapticIndex.exit
  %.02844 = phi ptr [ %.028, %SDL_GetHapticIndex.exit ], [ %.02842, %SDL_GetHapticIndex.exit.preheader ]
  %8 = load i32, ptr %.02844, align 8
  %9 = icmp eq i32 %0, %8
  br i1 %9, label %10, label %SDL_GetHapticIndex.exit

10:                                               ; preds = %.lr.ph
  %11 = getelementptr inbounds nuw i8, ptr %.02844, i64 48
  %12 = load i32, ptr %11, align 8
  %13 = add nsw i32 %12, 1
  store i32 %13, ptr %11, align 8
  br label %SDL_SetHapticAutocenter_REAL.exit

SDL_GetHapticIndex.exit:                          ; preds = %.lr.ph
  %14 = getelementptr inbounds nuw i8, ptr %.02844, i64 128
  %.028 = load ptr, ptr %14, align 8
  %.not = icmp eq ptr %.028, null
  br i1 %.not, label %SDL_GetHapticIndex.exit._crit_edge, label %.lr.ph, !llvm.loop !6

SDL_GetHapticIndex.exit._crit_edge:               ; preds = %SDL_GetHapticIndex.exit, %SDL_GetHapticIndex.exit.preheader
  %15 = tail call noalias dereferenceable_or_null(136) ptr @SDL_calloc_REAL(i64 noundef 1, i64 noundef 136) #10
  %.not31 = icmp eq ptr %15, null
  br i1 %.not31, label %SDL_SetHapticAutocenter_REAL.exit, label %16

16:                                               ; preds = %SDL_GetHapticIndex.exit._crit_edge
  store i32 %0, ptr %15, align 8
  %17 = getelementptr inbounds nuw i8, ptr %15, i64 52
  store i32 -1, ptr %17, align 4
  %18 = tail call zeroext i1 @SDL_SYS_HapticOpen(ptr noundef nonnull %15) #9
  br i1 %18, label %20, label %19

19:                                               ; preds = %16
  tail call void @SDL_SetObjectValid(ptr noundef nonnull %15, i32 noundef 6, i1 noundef zeroext false) #9
  tail call void @SDL_free_REAL(ptr noundef nonnull %15) #9
  br label %SDL_SetHapticAutocenter_REAL.exit

20:                                               ; preds = %16
  %21 = getelementptr inbounds nuw i8, ptr %15, i64 8
  %22 = load ptr, ptr %21, align 8
  %.not32 = icmp eq ptr %22, null
  br i1 %.not32, label %23, label %27

23:                                               ; preds = %20
  %24 = tail call ptr @SDL_SYS_HapticName(i32 noundef %.01216.i) #9
  %.not33 = icmp eq ptr %24, null
  br i1 %.not33, label %27, label %25

25:                                               ; preds = %23
  %26 = tail call noalias ptr @SDL_strdup_REAL(ptr noundef nonnull %24) #9
  store ptr %26, ptr %21, align 8
  br label %27

27:                                               ; preds = %23, %25, %20
  %28 = getelementptr inbounds nuw i8, ptr %15, i64 48
  %29 = load i32, ptr %28, align 8
  %30 = add nsw i32 %29, 1
  store i32 %30, ptr %28, align 8
  %31 = load ptr, ptr @SDL_haptics, align 8
  %32 = getelementptr inbounds nuw i8, ptr %15, i64 128
  store ptr %31, ptr %32, align 8
  store ptr %15, ptr @SDL_haptics, align 8
  tail call void @SDL_SetObjectValid(ptr noundef nonnull %15, i32 noundef 6, i1 noundef zeroext true) #9
  %33 = getelementptr inbounds nuw i8, ptr %15, i64 32
  %34 = load i32, ptr %33, align 8
  %35 = and i32 %34, 65536
  %.not34 = icmp eq i32 %35, 0
  br i1 %.not34, label %38, label %36

36:                                               ; preds = %27
  %37 = tail call zeroext i1 @SDL_SetHapticGain_REAL(ptr noundef nonnull %15, i32 noundef 100)
  %.pre = load i32, ptr %33, align 8
  br label %38

38:                                               ; preds = %36, %27
  %39 = phi i32 [ %.pre, %36 ], [ %34, %27 ]
  %40 = and i32 %39, 131072
  %.not35 = icmp eq i32 %40, 0
  br i1 %.not35, label %SDL_SetHapticAutocenter_REAL.exit, label %41

41:                                               ; preds = %38
  %42 = tail call zeroext i1 @SDL_ObjectValid(ptr noundef nonnull %15, i32 noundef 6) #9
  br i1 %42, label %45, label %43

43:                                               ; preds = %41
  %44 = tail call zeroext i1 (ptr, ...) @SDL_SetError_REAL(ptr noundef nonnull @.str, ptr noundef nonnull @.str.1) #9
  br label %SDL_SetHapticAutocenter_REAL.exit

45:                                               ; preds = %41
  %46 = load i32, ptr %33, align 8
  %47 = and i32 %46, 131072
  %.not.i36 = icmp eq i32 %47, 0
  br i1 %.not.i36, label %48, label %50

48:                                               ; preds = %45
  %49 = tail call zeroext i1 (ptr, ...) @SDL_SetError_REAL(ptr noundef nonnull @.str.15) #9
  br label %SDL_SetHapticAutocenter_REAL.exit

50:                                               ; preds = %45
  %51 = tail call zeroext i1 @SDL_HIDAPI_HapticIsHidapi(ptr noundef nonnull %15) #9
  br i1 %51, label %52, label %54

52:                                               ; preds = %50
  %53 = tail call zeroext i1 @SDL_HIDAPI_HapticSetAutocenter(ptr noundef nonnull %15, i32 noundef 0) #9
  br label %SDL_SetHapticAutocenter_REAL.exit

54:                                               ; preds = %50
  %55 = tail call zeroext i1 @SDL_SYS_HapticSetAutocenter(ptr noundef nonnull %15, i32 noundef 0) #9
  br label %SDL_SetHapticAutocenter_REAL.exit

SDL_SetHapticAutocenter_REAL.exit:                ; preds = %54, %52, %48, %43, %SDL_GetHapticIndex.exit.thread, %38, %SDL_GetHapticIndex.exit._crit_edge, %19, %10
  %.0 = phi ptr [ %.02844, %10 ], [ null, %19 ], [ null, %SDL_GetHapticIndex.exit._crit_edge ], [ %15, %38 ], [ null, %SDL_GetHapticIndex.exit.thread ], [ %15, %43 ], [ %15, %48 ], [ %15, %52 ], [ %15, %54 ]
  ret ptr %.0
}